; Function Attrs: nounwind uwtable
define internal void @_set_use_attr(ptr noundef %0, ptr noundef %1, ptr nocapture noundef readonly %2) #0 {
  tail call void @_set_attr(ptr noundef %0, ptr noundef %1, ptr noundef %2)
  %4 = load i8, ptr %2, align 8, !tbaa !163
  switch i8 %4, label %21 [
    i8 11, label %5
    i8 12, label %9
    i8 27, label %13
  ]

5:                                                ; preds = %3
  %6 = getelementptr inbounds nuw i8, ptr %2, i64 8
  %7 = load float, ptr %6, align 8, !tbaa !165
  %8 = getelementptr inbounds nuw i8, ptr %0, i64 576
  store float %7, ptr %8, align 8, !tbaa !233
  br label %21

9:                                                ; preds = %3
  %10 = getelementptr inbounds nuw i8, ptr %2, i64 8
  %11 = load float, ptr %10, align 8, !tbaa !165
  %12 = getelementptr inbounds nuw i8, ptr %0, i64 580
  store float %11, ptr %12, align 4, !tbaa !234
  br label %21

13:                                               ; preds = %3
  %14 = getelementptr inbounds nuw i8, ptr %0, i64 584
  %15 = load ptr, ptr %14, align 8, !tbaa !235
  %.not = icmp eq ptr %15, null
  br i1 %.not, label %17, label %16

16:                                               ; preds = %13
  tail call void @lv_free(ptr noundef nonnull %15) #9
  br label %17

17:                                               ; preds = %16, %13
  %18 = getelementptr inbounds nuw i8, ptr %2, i64 8
  %19 = load ptr, ptr %18, align 8, !tbaa !165
  %20 = tail call ptr @lv_strdup(ptr noundef %19) #9
  store ptr %20, ptr %14, align 8, !tbaa !235
  br label %21

21:                                               ; preds = %17, %9, %5, %3
  ret void
}